(lp0
(lp1
Vfeared violence
p2
aVfeared
p3
aa(lp4
Vadvocated violence
p5
aVadvocated
p6
aa(lp7
Vlarge
p8
aVis too large
p9
aa(lp10
Vsmall
p11
aVis too small
p12
aa(lp13
S''
p14
aa(lp15
g14
aa(lp16
Vwasn't successful
p17
aVsuccessful
p18
aa(lp19
Vwasn't available
p20
aVavailable
p21
aa(lp22
Vrepeat
p23
aVwas reluctant to repeat
p24
aVreluctant
p25
aa(lp26
Vanswer
p27
aVwas reluctant to answer
p28
aVreluctant
p29
aa(lp30
Vwas going so fast
p31
aVgoing
p32
aa(lp33
Vgoing
p34
aVslow
p35
aVwas going so slow
p36
aa(lp37
Vwas the winner of the competition
p38
aa(lp39
Vwas the winner of the competition
p40
aa(lp41
Vweak
p42
aVwas so weak
p43
aa(lp44
Vheavy
p45
aVwas so heavy
p46
aa(lp47
Vsteel
p48
aVmade
p49
aVwas made of steel
p50
aa(lp51
Vwas made of styrofoam
p52
aVmade
p53
aVstyrofoam
p54
aa(lp55
Vfront of because is so short
p56
aVfront
p57
aVshort
p58
aa(lp59
Vfront of because is so tall
p60
aVfront
p61
aVtall
p62
aa(lp63
Vreached
p64
aVreached the top of the stairs
p65
aa(lp66
Vreached
p67
aVreached the bottom of the stairs
p68
aa(lp69
Vsuch
p70
aVgood
p71
aVhad such a good start
p72
aa(lp73
Vsuch
p74
aVbad
p75
aVhad such a bad start
p76
aa(lp77
Vwasn't anchored
p78
aVanchored
p79
aa(lp80
Vwasn't level
p81
aa(lp82
VTina 's and did look much better with another one below
p83
aVlook
p84
aVTina
p85
aa(lp86
VTina 's and did look much better with another one above
p87
aVlook
p88
aVTina
p89
aa(lp90
Vstudied
p91
aVhad studied so hard
p92
aa(lp93
Vstudied
p94
aVhad studied so hard
p95
aa(lp96
Vwere coming from so far away
p97
aVcoming
p98
aa(lp99
Vwere coming from so far away
p100
aVcoming
p101
aa(lp102
Vthe toaster had bought from didn't work
p103
aVwork
p104
aVbought
p105
aa(lp106
Vsold
p107
aVwork
p108
aVthe toaster had sold didn't work
p109
aa(lp110
Vupset
p111
aVwas so upset
p112
aa(lp113
Vupset
p114
aVwas so upset
p115
aa(lp116
Vhad to be moved first
p117
aVmoved
p118
aa(lp119
Vhad to be moved first
p120
aVmoved
p121
aa(lp122
Vsuccessful
p123
aVis very successful
p124
aa(lp125
Vsuccessful
p126
aVis very successful
p127
aa(lp128
Vpunished
p129
aa(lp130
Vrescued
p131
aa(lp132
Vwas empty
p133
aVempty
p134
aa(lp135
Vfull
p136
aVwas full
p137
aa(lp138
Vnosy
p139
aVis nosy
p140
aa(lp141
Vis indiscreet
p142
aVindiscreet
p143
aa(lp144
Vcouldn't convince
p145
aVconvince
p146
aa(lp147
Vcouldn't understand
p148
aVunderstand
p149
aa(lp150
Va car accident , so told about
p151
aVtold
p152
aa(lp153
Va car accident , because told about
p154
aVtold
p155
aa(lp156
Vtennis , even though is 30 years younger
p157
aVtennis
p158
aVyounger
p159
aa(lp160
Vtennis
p161
aVtennis , even though is 30 years older
p162
aVolder
p163
aa(lp164
g14
aa(lp165
g14
aa(lp166
g14
aa(lp167
g14
aa(lp168
g14
aa(lp169
g14
aa(lp170
Vmuch
p171
aV4:30 , so there wasn't much time
p172
aa(lp173
Vmuch
p174
aV4:30 , so there wasn't much time
p175
aa(lp176
Vsee
p177
aVcan't see around
p178
aa(lp179
Vcan't see
p180
aVsee
p181
aa(lp182
Vhear
p183
aVthe station and couldn't hear
p184
aa(lp185
Vthe station and couldn't hear over
p186
aVhear
p187
aa(lp188
Vcontinued
p189
aVcontinued until 10
p190
aa(lp191
Vcontinued
p192
aVcontinued until 10
p193
aa(lp194
Vput
p195
aVthen put in the trash
p196
aa(lp197
Vput
p198
aVthen put in the drawer
p199
aa(lp200
Vhad forgotten
p201
aVforgotten
p202
aa(lp203
Vhad forgotten
p204
aVforgotten
p205
aa(lp206
Vthat would be handy
p207
aVhandy
p208
aa(lp209
Vthat would be lighter
p210
aVlighter
p211
aa(lp212
Vtall
p213
aVwas too tall
p214
aa(lp215
Vhigh
p216
aVwas too high
p217
aa(lp218
g14
aa(lp219
g14
aa(lp220
g14
aa(lp221
g14
aa(lp222
Vacts
p223
aVnow Charlie acts as though never happened
p224
aVhappened
p225
aa(lp226
Vacts
p227
aVnow Charlie acts as though never happened
p228
aVhappened
p229
aa(lp230
Vwas way ahead
p231
aa(lp232
Vwas way ahead
p233
aa(lp234
g14
aa(lp235
g14
aa(lp236
Vgotten
p237
aVwould have gotten a lot of money
p238
aVmoney
p239
aa(lp240
Vmoney
p241
aVwould have lost a lot of money
p242
aVlost
p243
aa(lp244
Vthe dog was sitting in the middle of the lawn
p245
aVsitting
p246
aa(lp247
Vthe dog was sitting in the middle of the lawn
p248
aVsitting
p249
aa(lp250
Vimpatient
p251
aVwas too impatient
p252
aa(lp253
Vwas too cautious
p254
aVcautious
p255
aa(lp256
g14
aa(lp257
g14
aa(lp258
Vbehaving
p259
aVleaving
p260
aVchatting at the party , leaving to wonder why was behaving so strangely
p261
aVchatting
p262
aVwonder
p263
aa(lp264
Vbarking at the party , leaving to wonder why was behaving so strangely
p265
aVbehaving
p266
aVleaving
p267
aVbarking
p268
aVwonder
p269
aa(lp270
Vhuge
p271
aVa huge red beard
p272
aVred
p273
aa(lp274
Vhuge
p275
aVa huge red beard
p276
aVred
p277
aa(lp278
g14
aa(lp279
g14
aa(lp280
Vcouldn't get in
p281
aa(lp282
Vcouldn't get out
p283
aa(lp284
Vran up a tree
p285
aVran
p286
aa(lp287
Vran up a tree
p288
aVran
p289
aa(lp290
Vhouse
p291
aa(lp292
Vhouse
p293
aa(lp294
Vstabbed
p295
aVthe bank and stabbed one of the tellers
p296
aa(lp297
Vstabbed
p298
aVthe bank and stabbed one of the tellers
p299
aa(lp300
Vwhistling
p301
aa(lp302
Vwhistling
p303
aa(lp304
Vsaw
p305
aVthe park when saw a man juggling watermelons
p306
aVjuggling
p307
aa(lp308
Vsaw
p309
aVthe park when saw a man juggling watermelons
p310
aVjuggling
p311
aa(lp312
g14
aa(lp313
g14
aa(lp314
V, because are fifteen
p315
aa(lp316
V, because are snobs
p317
aa(lp318
Vincluded
p319
aV, which Pete included in his book
p320
aa(lp321
Vincluded
p322
aV, which Pete included in his book
p323
aa(lp324
Vnew
p325
aVbought
p326
aVbought a new one a few miles away
p327
aVfew
p328
aa(lp329
Vnew
p330
aVbought
p331
aVbought a new one a few miles away
p332
aVfew
p333
aa(lp334
Vput
p335
aVcan't put down
p336
aa(lp337
Vput
p338
aVcan't put down
p339
aa(lp340
Vfavorite
p341
aVplayed one of favorite pieces
p342
aVplayed
p343
aa(lp344
Vfavorite
p345
aVplayed one of favorite pieces
p346
aVplayed
p347
aa(lp348
Vwas broken , so had to stand instead
p349
aVbroken
p350
aVstand
p351
aa(lp352
Vbroken
p353
aVwas broken , so had to sing instead
p354
aVsing
p355
aa(lp356
g14
aa(lp357
g14
aa(lp358
g14
aa(lp359
g14
aa(lp360
Vknocked
p361
aVhighest
p362
aVthe highest tower , but this afternoon the tide knocked down
p363
aa(lp364
Vknocked
p365
aVhighest
p366
aVthe highest tower , but this afternoon the wind knocked down
p367
aa(lp368
Vthere was no answer
p369
aa(lp370
Vthere was no answer
p371
aa(lp372
g14
aa(lp373
g14
aa(lp374
Veager
p375
aVwas eager to speak fluently
p376
aVspeak
p377
aa(lp378
Vknown
p379
aVwas known to speak fluently
p380
aVspeak
p381
aa(lp382
Vuse
p383
aVcouldn't use
p384
aa(lp385
Vreach
p386
aVcouldn't reach
p387
aa(lp388
Vstarted
p389
aVluckily , by the time the picnic started , was out
p390
aa(lp391
Vstarted
p392
aVluckily , by the time the picnic started , was gone
p393
aVgone
p394
aa(lp395
Vwas a safer place to swim
p396
aVswim
p397
aVsafer
p398
aa(lp399
Vswim
p400
aVdangerous
p401
aVwas a dangerous place to swim
p402
aa(lp403
Vlooking
p404
aVended
p405
aVgolfers
p406
aVended up looking more like golfers
p407
aVmore
p408
aa(lp409
Vlooking
p410
aVended
p411
aVdogs
p412
aVended up looking more like dogs
p413
aVmore
p414
aa(lp415
Vwork
p416
aVbed
p417
aVbed , so that could work
p418
aa(lp419
Vsleep
p420
aVbed
p421
aVbed , so that could sleep
p422
aa(lp423
Vcold
p424
aVprepared
p425
aVAlaska
p426
aVwere not prepared for the cold in Alaska
p427
aa(lp428
Vwere not enough for the cold in Alaska
p429
aVcold
p430
aVAlaska
p431
aa(lp432
V1765
p433
aa(lp434
V1765
p435
aa(lp436
Vlived
p437
aVlived two centuries later
p438
aa(lp439
Vlived
p440
aVlived two centuries earlier
p441
aa(lp442
g14
aa(lp443
g14
aa(lp444
g14
aa(lp445
g14
aa(lp446
g14
aa(lp447
g14
aa(lp448
Vblowing
p449
aVthe wind was blowing sand around
p450
aa(lp451
Vblowing
p452
aVthe wind was blowing sand around
p453
aa(lp454
Vpronounce
p455
aVfigured was too hard to pronounce
p456
aVhard
p457
aVfigured
p458
aa(lp459
Vfigured was easier to pronounce
p460
aVpronounce
p461
aVeasier
p462
aVfigured
p463
aa(lp464
Vto buy groceries
p465
aVbuy
p466
aa(lp467
Vto buy groceries
p468
aVbuy
p469
aa(lp470
g14
aa(lp471
g14
aa(lp472
g14
aa(lp473
g14
aa(lp474
Van infant
p475
aa(lp476
Van infant
p477
aa(lp478
g14
aa(lp479
g14
aa(lp480
g14
aVLook
p481
aa(lp482
g14
aVLook
p483
aa(lp484
VLaputa 20,000 years ago
p485
aVLaputa
p486
aa(lp487
VLaputa 20,000 years ago
p488
aVLaputa
p489
aa(lp490
Vthe Indian Ocean
p491
aa(lp492
Vthe Indian Ocean
p493
aa(lp494
Vnew
p495
aVthe new movie
p496
aa(lp497
Vnew
p498
aVthe new movie
p499
aa(lp500
g14
aa(lp501
g14
aa(lp502
g14
aa(lp503
g14
aa(lp504
g14
aa(lp505
g14
aa(lp506
g14
aa(lp507
g14
aa(lp508
g14
aa(lp509
g14
aa(lp510
Vthe auditorium , but there were simply not enough of
p511
aa(lp512
Vmany
p513
aVthe auditorium , but there were simply too many of
p514
aa(lp515
g14
aa(lp516
g14
aa(lp517
g14
aa(lp518
g14
aa(lp519
Veverything
p520
aa(lp521
Veverything
p522
aa(lp523
Vis too wide
p524
aVwide
p525
aa(lp526
Vnarrow
p527
aVis too narrow
p528
aa(lp529
g14
aa(lp530
g14
aa(lp531
g14
aa(lp532
g14
aa(lp533
Van hour later left
p534
aVleft
p535
aa(lp536
Van hour later left
p537
aVleft
p538
aa(lp539
Vfaced
p540
aVthe difficulties faced in his research
p541
aa(lp542
Vfaced
p543
aVthe difficulties faced in his childhood
p544
aa(lp545
Vgoverness
p546
aVeducation had been managed by an excellent woman as governess
p547
aVmanaged
p548
aVexcellent
p549
aa(lp550
Vtaken
p551
aVgoverness
p552
aVplace had been taken by an excellent woman as governess
p553
aVexcellent
p554
aa(lp555
Vdid not get an answer
p556
aa(lp557
Vanswer
p558
aVdid not answer
p559
aa(lp560
Vreceived
p561
aVreceived the final report on the case
p562
aVfinal
p563
aa(lp564
Vdelivered the final report on the case
p565
aVfinal
p566
aVdelivered
p567
aa(lp568
Vstopped
p569
aVcut
p570
aVhad cut off , because stopped and counted to ten
p571
aVcounted
p572
aa(lp573
Vapologized
p574
aVhad cut off , because stopped and apologized
p575
aVcut
p576
aVstopped
p577
aa(lp578
Vgestured toward empty glass
p579
aVempty
p580
aVgestured
p581
aa(lp582
Vgestured toward bathroom key
p583
aVgestured
p584
aa(lp585
V`` Dibs ''
p586
aa(lp587
V`` Dibs ''
p588
aa(lp589
Vmoved his bishop
p590
aVmoved
p591
aa(lp592
Vtook
p593
aVtook his bishop
p594
aa(lp595
Vsee
p596
aVcould see the landing strip
p597
aa(lp598
Vsee
p599
aVcould see the landing gear
p600
aa(lp601
Vwouldn't have to drive alone
p602
aVdrive
p603
aa(lp604
Vwouldn't have to walk
p605
aVwalk
p606
aa(lp607
Vfull
p608
aVwas full
p609
aa(lp610
Vwas hungry
p611
aVhungry
p612
aa(lp613
Vturn was over
p614
aa(lp615
Vturn was next
p616
aVnext
p617
aa(lp618
Vshoulders
p619
aa(lp620
Vbunk bed
p621
aa(lp622
g14
aa(lp623
g14
aa(lp624
g14
aa(lp625
g14
aa(lp626
Vbreaking
p627
aVsilence
p628
aa(lp629
Vconcentration
p630
aVbreaking
p631
aa(lp632
Vsympathetic
p633
aVfather gave a sympathetic look
p634
aVgave
p635
aa(lp636
Vgave
p637
aVfather gave a stern look
p638
aVstern
p639
aa(lp640
Vwinding
p641
aVlong
p642
aVthe long winding steps , legs ached
p643
aVached
p644
aa(lp645
Vwinding
p646
aVdangled
p647
aVlong
p648
aVthe long winding steps , legs dangled
p649
aa(lp650
Varms
p651
aa(lp652
Vbassinet
p653
aa(lp654
Vchest
p655
aa(lp656
a(lp657
g14
aa(lp658
g14
aa(lp659
Vseveral
p660
aVfuture
p661
aVretired
p662
aVhad retired and presented several options for future treatment
p663
aVpresented
p664
aa(lp665
Vseveral
p666
aVfuture
p667
aVhad cancer and presented several options for future treatment
p668
aVpresented
p669
aa(lp670
Vinjured
p671
aVtoying with the injured bird
p672
aVtoying
p673
aa(lp674
Vinjured
p675
aVtoying with the injured bird
p676
aVtoying
p677
aa(lp678
Vthough was particularly eager to see
p679
aVeager
p680
aVsee
p681
aa(lp682
Veager
p683
aVsee
p684
aVwas particularly eager to see
p685
aa(lp686
Veager
p687
aVsee
p688
aVwas not particularly eager to see
p689
aa(lp690
Vwasn't hungry
p691
aVhungry
p692
aa(lp693
Vwas hungry
p694
aVhungry
p695
aa(lp696
Vlooking
p697
aVlight
p698
aVcame out looking more like light bulbs
p699
aVcame
p700
aVmore
p701
aa(lp702
Vlooking
p703
aVcame
p704
aVtelephone
p705
aVcame out looking more like telephone poles
p706
aVmore
p707
aa(lp708
Vwas refused
p709
aVrefused
p710
aa(lp711
Vrefused
p712
aa(lp713
Vpopular
p714
aVwas less popular
p715
aa(lp716
Vpopular
p717
aVwas more popular
p718
aa(lp719
Vopen
p720
aVsaw
p721
aVsaw that was open
p722
aa(lp723
Vwas open
p724
aVopen
p725
aa(lp726
Vbroke
p727
aa(lp728
Vbroke
p729
aa(lp730
Vcouldn't stand her boyfriend
p731
aVstand
p732
aa(lp733
Vslept
p734
aVslept with her boyfriend
p735
aa(lp736
Vslept
p737
aVslept with her boyfriend
p738
aa(lp739
Vcouldn't stand her boyfriend
p740
aVstand
p741
aa(lp742
Vstolen
p743
aVhad stolen the watch
p744
aa(lp745
Vstolen
p746
aVhad stolen the watch
p747
aa.