(lp0
I1
aS''
p1
aI1
aI1
ag1
ag1
aI1
aI1
aI1
aI1
aI1
aI1
ag1
ag1
aI1
aI1
aI0
ag1
aI1
aI1
aI1
aI1
aI1
aI1
aI1
ag1
ag1
ag1
aI1
aI0
aI0
aI1
aI1
aI1
aI1
aI1
aI1
aI1
aI1
aI1
aI1
aI1
aI1
aI1
aI1
aI1
aI1
aI0
aI0
aI0
aI1
aI1
ag1
ag1
ag1
ag1
ag1
ag1
aI1
aI1
aI1
aI1
aI0
aI0
aI1
aI1
aI1
aI1
aI1
aI1
aI1
aI1
aI1
aI1
ag1
ag1
ag1
ag1
aI1
aI1
aI1
aI1
ag1
ag1
aI1
aI1
ag1
ag1
aI0
ag1
ag1
ag1
aI1
aI1
aI1
aI1
ag1
ag1
ag1
ag1
aI1
aI1
aI1
aI1
aI0
aI0
aI1
aI1
aI1
aI1
ag1
ag1
ag1
ag1
aI1
aI1
ag1
ag1
aI1
aI1
aI1
aI1
aI1
aI1
ag1
ag1
ag1
ag1
aI0
aI0
aI0
aI0
ag1
ag1
aI1
aI0
aI1
aI1
aI1
aI1
aI1
aI1
aI1
aI1
aI1
aI1
aI0
aI1
ag1
ag1
aI1
aI1
ag1
ag1
ag1
ag1
ag1
ag1
ag1
ag1
aI1
aI1
aI1
aI1
ag1
ag1
ag1
ag1
aI0
aI0
ag1
ag1
ag1
ag1
ag1
ag1
ag1
ag1
aI1
aI1
ag1
ag1
ag1
ag1
ag1
ag1
ag1
ag1
ag1
ag1
ag1
ag1
ag1
ag1
ag1
ag1
aI1
aI1
aI1
aI1
ag1
ag1
ag1
ag1
aI1
aI1
aI1
aI1
aI0
aI0
aI0
aI1
aI1
aI1
aI1
aI1
aI1
ag1
ag1
ag1
aI1
aI1
aI1
aI1
aI1
ag1
ag1
ag1
ag1
ag1
ag1
ag1
ag1
ag1
ag1
ag1
ag1
ag1
ag1
ag1
ag1
ag1
ag1
ag1
ag1
ag1
ag1
ag1
ag1
ag1
ag1
ag1
ag1
ag1
ag1
ag1
ag1
ag1
ag1
ag1
ag1
ag1
ag1
ag1
ag1
ag1
ag1
ag1
ag1
ag1
ag1
ag1
ag1
a.