(lp0
(lp1
Vfear
p2
aVfeared violence
p3
aVfeared
p4
aa(lp5
Vurge
p6
aVadvocated violence
p7
aVadvocate
p8
aVadvocated
p9
aVrecommend
p10
aa(lp11
Vlarge
p12
aVbig
p13
aVis too large
p14
aa(lp15
Vsmall
p16
aVlittle
p17
aVis too small
p18
aa(lp19
Vrecieved
p20
aVall the help had recieved
p21
aa(lp22
Vgiven
p23
aVall the help had given
p24
aVgive
p25
aa(lp26
Vwasn't successful
p27
aVsuccessful
p28
aa(lp29
Vwasn't available
p30
aVavailable
p31
aa(lp32
Vingeminate
p33
aViterate
p34
aVreiterate
p35
aVrepeat
p36
aVwas reluctant to repeat
p37
aa(lp38
Vrespond
p39
aVloath
p40
aVanswer
p41
aVreply
p42
aVwas reluctant to answer
p43
aVreluctant
p44
aa(lp45
Vwas going so fast
p46
aVgo
p47
aVtravel
p48
aVgoing
p49
aVmove
p50
aa(lp51
Vdecelerate
p52
aVslow down
p53
aVslow
p54
aVwas going so slow
p55
aVslow up
p56
aa(lp57
Vwas the winner of the competition
p58
aa(lp59
Vwas the winner of the competition
p60
aa(lp61
Vweak
p62
aVwas so weak
p63
aa(lp64
Vheavy
p65
aVwas so heavy
p66
aa(lp67
Vsteel
p68
aVnerve
p69
aVmake
p70
aVmade
p71
aVwas made of steel
p72
aa(lp73
Vwas made of styrofoam
p74
aVdo
p75
ag70
aVmade
p76
aVstyrofoam
p77
aa(lp78
Vshort
p79
aVlook
p80
aVface
p81
aVfront of because is so short
p82
aVfront
p83
aVshort-change
p84
aa(lp85
Vfront of because is so tall
p86
aVfront
p87
aVtall
p88
ag80
ag81
aa(lp89
Vreached
p90
aVmake
p91
aVreach
p92
aVattain
p93
aVreached the top of the stairs
p94
aa(lp95
Vreached
p96
ag91
aVreached the bottom of the stairs
p97
ag93
ag92
aa(lp98
Vsuch
p99
aVgood
p100
aVhad such a good start
p101
aa(lp102
Vsuch
p103
aVbad
p104
aVhad such a bad start
p105
aa(lp106
Vwasn't anchored
p107
aVanchored
p108
aVanchor
p109
aVground
p110
aa(lp111
Vwasn't level
p112
aa(lp113
VTina 's and did look much better with another one below
p114
aVlook
p115
aVTina
p116
aa(lp117
VTina 's and did look much better with another one above
p118
aVlook
p119
aVTina
p120
aa(lp121
Vanalyze
p122
aVstudy
p123
aVstudied
p124
aVanalyse
p125
aVhad studied so hard
p126
aa(lp127
g122
ag123
aVstudied
p128
ag125
aVhad studied so hard
p129
aa(lp130
Vcome up
p131
aVwere coming from so far away
p132
aVcome
p133
aVcoming
p134
aa(lp135
Vcome up
p136
aVwere coming from so far away
p137
ag133
aVcoming
p138
aa(lp139
Vthe toaster had bought from didn't work
p140
aVpurchase
p141
aVbuy
p142
aVwork
p143
aVbought
p144
aa(lp145
Vsell
p146
aVsold
p147
aVwork
p148
aVthe toaster had sold didn't work
p149
aa(lp150
Vupset
p151
aVwas so upset
p152
aa(lp153
Vupset
p154
aVwas so upset
p155
aa(lp156
g47
ag48
aVhad to be moved first
p157
aVmoved
p158
ag50
aa(lp159
g47
ag48
aVhad to be moved first
p160
aVmoved
p161
ag50
aa(lp162
Vsuccessful
p163
aVis very successful
p164
aa(lp165
Vsuccessful
p166
aVis very successful
p167
aa(lp168
Vpenalize
p169
aVpunish
p170
aVpunished
p171
aVpenalise
p172
aa(lp173
Vrescued
p174
aVdeliver
p175
aVrescue
p176
aa(lp177
Vwas empty
p178
aVempty
p179
aa(lp180
Vfull
p181
aVwas full
p182
aa(lp183
Vnosy
p184
aVis nosy
p185
aVprying
p186
aVsnoopy
p187
aVnosey
p188
aa(lp189
Vis indiscreet
p190
aVindiscreet
p191
aa(lp192
Vwin over
p193
aVcouldn't convince
p194
aVconvert
p195
aVconvince
p196
aa(lp197
Vcouldn't understand
p198
aVunderstand
p199
aa(lp200
Va car accident , so told about
p201
aVtell
p202
aVstate
p203
aVsay
p204
aVtold
p205
aa(lp206
Va car accident , because told about
p207
ag203
ag202
ag204
aVtold
p208
aa(lp209
Vjr.
p210
aVtennis , even though is 30 years younger
p211
aVtennis
p212
aVyounger
p213
aa(lp214
Vtennis
p215
aVtennis , even though is 30 years older
p216
aVaged
p217
aVelderly
p218
aVolder
p219
aa(lp220
S''
p221
aa(lp222
g221
aa(lp223
g221
aa(lp224
g221
aa(lp225
g221
aa(lp226
g221
aa(lp227
Vmuch
p228
aV4:30 , so there wasn't much time
p229
aa(lp230
Vmuch
p231
aV4:30 , so there wasn't much time
p232
aa(lp233
Vsee
p234
aVcan't see around
p235
aa(lp236
Vcan't see
p237
aVsee
p238
aa(lp239
Vhear
p240
aVthe station and couldn't hear
p241
aa(lp242
Vthe station and couldn't hear over
p243
aVhear
p244
aa(lp245
Vgo on
p246
aVcontinue
p247
aVcontinued
p248
aVproceed
p249
aVcontinued until 10
p250
aa(lp251
Vgo on
p252
ag247
aVcontinued
p253
ag249
aVcontinued until 10
p254
aa(lp255
Vput
p256
aVthen put in the trash
p257
aVset
p258
aVplace
p259
aVpose
p260
aa(lp261
Vput
p262
ag259
aVthen put in the drawer
p263
ag258
ag260
aa(lp264
Vbury
p265
aVhad forgotten
p266
aVforget
p267
aVforgotten
p268
aa(lp269
g265
aVhad forgotten
p270
ag267
aVforgotten
p271
aa(lp272
Vready to hand
p273
aVthat would be handy
p274
aVhandy
p275
aa(lp276
Vthat would be lighter
p277
aVlighter
p278
aa(lp279
Vtall
p280
aVwas too tall
p281
aa(lp282
Vhigh
p283
aVwas too high
p284
aa(lp285
g221
aa(lp286
g221
aa(lp287
g221
aa(lp288
g221
aa(lp289
Vacts
p290
aVmove
p291
aVact
p292
aVhappen
p293
aVnow Charlie acts as though never happened
p294
aVhappened
p295
aa(lp296
Vacts
p297
ag291
ag292
ag293
aVnow Charlie acts as though never happened
p298
aVhappened
p299
aa(lp300
Vwas way ahead
p301
aa(lp302
Vwas way ahead
p303
aa(lp304
g221
aa(lp305
g221
aa(lp306
Vgotten
p307
aVacquire
p308
aVmoney
p309
aVwould have gotten a lot of money
p310
aVget
p311
aa(lp312
Vmoney
p313
aVwould have lost a lot of money
p314
aVlost
p315
aVlose
p316
aa(lp317
Vsit down
p318
aVthe dog was sitting in the middle of the lawn
p319
aVsit
p320
aVsitting
p321
aa(lp322
Vsit down
p323
aVthe dog was sitting in the middle of the lawn
p324
ag320
aVsitting
p325
aa(lp326
Vthe mouse , but was too impatient
p327
aVimpatient
p328
aa(lp329
Vthe mouse , but was too cautious
p330
aVcautious
p331
aa(lp332
g221
aa(lp333
g221
aa(lp334
Vbehaving
p335
aVdo
p336
aVbehave
p337
aVchatting at the party , leaving to wonder why was behaving so strangely
p338
aVact
p339
aa(lp340
Vbarking at the party , leaving to wonder why was behaving so strangely
p341
aVbehaving
p342
ag337
ag336
ag339
aa(lp343
Vhuge
p344
aVBrobdingnagian
p345
aVa huge red beard
p346
aVvast
p347
aVimmense
p348
aa(lp349
Vhuge
p350
ag345
aVa huge red beard
p351
ag347
ag348
aa(lp352
g221
aa(lp353
g221
aa(lp354
Vcouldn't get in
p355
aa(lp356
Vcouldn't get out
p357
aa(lp358
Vran up a tree
p359
aVran
p360
aVrun
p361
aa(lp362
Vran up a tree
p363
aVran
p364
ag361
aa(lp365
Vhouse
p366
aa(lp367
Vhouse
p368
aa(lp369
Vstabbed
p370
aVstab
p371
aVknife
p372
aVthe bank and stabbed one of the tellers
p373
aa(lp374
Vstabbed
p375
ag371
ag372
aVthe bank and stabbed one of the tellers
p376
aa(lp377
Vwhistle
p378
aVwhistling
p379
aa(lp380
g378
aVwhistling
p381
aa(lp382
Vbeguile
p383
aVjuggle
p384
aVsaw
p385
aVthe park when saw a man juggling watermelons
p386
aVjuggling
p387
aa(lp388
g383
ag384
aVsaw
p389
aVthe park when saw a man juggling watermelons
p390
aVjuggling
p391
aa(lp392
g221
aa(lp393
g221
aa(lp394
V, because are fifteen
p395
aa(lp396
V, because are snobs
p397
aa(lp398
Vincluded
p399
aV, which Pete included in his book
p400
aVinclude
p401
aa(lp402
Vincluded
p403
aV, which Pete included in his book
p404
ag401
aa(lp405
Vnew
p406
ag142
aVbought
p407
aVbought a new one a few miles away
p408
aVfew
p409
aa(lp410
Vnew
p411
ag142
aVbought
p412
aVbought a new one a few miles away
p413
aVfew
p414
aa(lp415
Vput
p416
ag259
aVcan't put down
p417
ag258
ag260
aa(lp418
Vput
p419
ag259
aVcan't put down
p420
ag258
ag260
aa(lp421
Vfavourite
p422
aVfavorite
p423
aVplay
p424
aVplayed one of favorite pieces
p425
aVplayed
p426
aa(lp427
g422
aVfavorite
p428
ag424
aVplayed one of favorite pieces
p429
aVplayed
p430
aa(lp431
Vwas broken , so had to stand instead
p432
aVbroken
p433
aVinterrupt
p434
aVbreak
p435
aVstand
p436
aa(lp437
g434
aVbroken
p438
aVwas broken , so had to sing instead
p439
ag435
aVsing
p440
aa(lp441
g221
aa(lp442
g221
aa(lp443
g221
aa(lp444
g221
aa(lp445
Vknock
p446
aVthe highest tower , but this afternoon the tide knocked down
p447
aVstrike hard
p448
aVhigh
p449
aVknocked
p450
aVhighest
p451
aa(lp452
g446
aVstrike hard
p453
ag449
aVknocked
p454
aVhighest
p455
aVthe highest tower , but this afternoon the wind knocked down
p456
aa(lp457
Vthere was no answer
p458
aa(lp459
Vthere was no answer
p460
aa(lp461
g221
aa(lp462
g221
aa(lp463
Veager
p464
aVwas eager to speak fluently
p465
aVutter
p466
aVtalk
p467
aVspeak
p468
aa(lp469
Vknown
p470
aVcognise
p471
aVwas known to speak fluently
p472
aVcognize
p473
aVknow
p474
aa(lp475
Vapply
p476
aVuse
p477
aVcouldn't use
p478
aVutilize
p479
aVutilise
p480
aa(lp481
Vhit
p482
ag91
aVreach
p483
ag93
aVcouldn't reach
p484
aa(lp485
Vstarted
p486
aVget down
p487
aVbegin
p488
aVget
p489
aVluckily , by the time the picnic started , was out
p490
aa(lp491
Vstarted
p492
aVluckily , by the time the picnic started , was gone
p493
ag488
aVget down
p494
ag489
aa(lp495
Vwas a safer place to swim
p496
aVswim
p497
aVsafer
p498
aVsafe
p499
aa(lp500
Vswim
p501
aVdangerous
p502
aVwas a dangerous place to swim
p503
aVunsafe
p504
aa(lp505
Vlooking
p506
aVended
p507
aVend
p508
aVlook
p509
aVended up looking more like golfers
p510
aa(lp511
Vlooking
p512
aVended
p513
ag508
ag509
aVended up looking more like dogs
p514
aa(lp515
Vwork
p516
aVbed
p517
aVbed , so that could work
p518
aa(lp519
Vslumber
p520
aVkip
p521
aVsleep
p522
aVlog Z's
p523
aVbed , so that could sleep
p524
aa(lp525
Vcold
p526
aVprepared
p527
aVfix
p528
aVprepare
p529
aVwere not prepared for the cold in Alaska
p530
aa(lp531
Vwere not enough for the cold in Alaska
p532
aVcold
p533
aVAlaska
p534
aa(lp535
V1765
p536
aa(lp537
V1765
p538
aa(lp539
Vdwell
p540
aVlive
p541
aVlived
p542
aVpopulate
p543
aVlived two centuries later
p544
aa(lp545
g540
ag541
aVlived
p546
ag543
aVlived two centuries earlier
p547
aa(lp548
g221
aa(lp549
g221
aa(lp550
g221
aa(lp551
g221
aa(lp552
g221
aa(lp553
g221
aa(lp554
Vblow
p555
aVblowing
p556
aVthe wind was blowing sand around
p557
aa(lp558
g555
aVblowing
p559
aVthe wind was blowing sand around
p560
aa(lp561
Vpronounce
p562
aVfigured was too hard to pronounce
p563
aVhard
p564
aVarticulate
p565
aVdifficult
p566
aa(lp567
Vsound out
p568
aVfigured was easier to pronounce
p569
aVpronounce
p570
aVenounce
p571
ag565
aa(lp572
g141
aVto buy groceries
p573
aVbuy
p574
aa(lp575
g141
aVto buy groceries
p576
aVbuy
p577
aa(lp578
g221
aa(lp579
g221
aa(lp580
g221
aa(lp581
g221
aa(lp582
Van infant
p583
aa(lp584
Van infant
p585
aa(lp586
g221
aa(lp587
g221
aa(lp588
g221
aVLook
p589
ag509
aa(lp590
g221
aVLook
p591
ag509
aa(lp592
VLaputa 20,000 years ago
p593
aVLaputa
p594
aa(lp595
VLaputa 20,000 years ago
p596
aVLaputa
p597
aa(lp598
Vthe Indian Ocean
p599
aa(lp600
Vthe Indian Ocean
p601
aa(lp602
Vnew
p603
aVthe new movie
p604
aa(lp605
Vnew
p606
aVthe new movie
p607
aa(lp608
g221
aa(lp609
g221
aa(lp610
g221
aa(lp611
g221
aa(lp612
g221
aa(lp613
g221
aa(lp614
g221
aa(lp615
g221
aa(lp616
g221
aa(lp617
g221
aa(lp618
Vthe auditorium , but there were simply not enough of
p619
aa(lp620
Vmany
p621
aVthe auditorium , but there were simply too many of
p622
aa(lp623
g221
aa(lp624
g221
aa(lp625
g221
aa(lp626
g221
aa(lp627
Veverything
p628
aa(lp629
Veverything
p630
aa(lp631
Vis too wide
p632
aVwide
p633
aVbroad
p634
aa(lp635
Vnarrow
p636
aVcontract
p637
aVis too narrow
p638
aa(lp639
g221
aa(lp640
g221
aa(lp641
g221
aa(lp642
g221
aa(lp643
Vleave
p644
aVgo forth
p645
aVan hour later left
p646
aVgo away
p647
aVleft
p648
aa(lp649
g644
aVgo forth
p650
aVan hour later left
p651
aVgo away
p652
aVleft
p653
aa(lp654
Vfaced
p655
aVconfront
p656
aVface
p657
aVface up
p658
aVthe difficulties faced in his research
p659
aa(lp660
Vfaced
p661
aVthe difficulties faced in his childhood
p662
ag657
aVface up
p663
ag656
aa(lp664
Vnegociate
p665
aVeducation had been managed by an excellent woman as governess
p666
aVmanaged
p667
aVbring off
p668
aVpull off
p669
aa(lp670
Vtaken
p671
aVgoverness
p672
aVregulate
p673
aVplace had been taken by an excellent woman as governess
p674
aVtake
p675
aa(lp676
Vdid not get an answer
p677
aa(lp678
Vanswer
p679
ag42
ag39
aVdid not answer
p680
aa(lp681
Vreceived
p682
aVreceived the final report on the case
p683
aVreceive
p684
aVhave
p685
aVconcluding
p686
aVfinal
p687
aa(lp688
Vdelivered
p689
aVdelivered the final report on the case
p690
aVdeliver
p691
ag686
aVfinal
p692
aVpresent
p693
aa(lp694
Vstop
p695
aVstopped
p696
aVcut
p697
aVhad cut off , because stopped and counted to ten
p698
aVhalt
p699
aa(lp700
g695
aVhad cut off , because stopped and apologized
p701
aVcut
p702
aVstopped
p703
ag699
aa(lp704
Vgesticulate
p705
aVgestured toward empty glass
p706
aVgesture
p707
aVempty
p708
aVgestured
p709
aa(lp710
Vmotion
p711
ag705
aVgestured toward bathroom key
p712
ag707
aVgestured
p713
aa(lp714
V`` Dibs ''
p715
aa(lp716
V`` Dibs ''
p717
aa(lp718
Vmoved his bishop
p719
ag47
ag48
ag50
aVmoved
p720
aa(lp721
g675
aVtook
p722
aVtook his bishop
p723
aa(lp724
Vsee
p725
aVcould see the landing strip
p726
aa(lp727
Vsee
p728
aVcould see the landing gear
p729
aa(lp730
Vwouldn't have to drive alone
p731
aVdrive
p732
aa(lp733
Vwouldn't have to walk
p734
aVwalk
p735
aa(lp736
Vfull
p737
aVwas full
p738
aa(lp739
Vwas hungry
p740
aVhungry
p741
aa(lp742
Vturn was over
p743
aa(lp744
Vfollowing
p745
aVturn was next
p746
aVnext
p747
aa(lp748
Vshoulders
p749
aa(lp750
Vbunk bed
p751
aa(lp752
g221
aa(lp753
g221
aa(lp754
g221
aa(lp755
g221
aa(lp756
g434
ag435
aVbreaking
p757
aVsilence
p758
aa(lp759
g434
ag435
aVconcentration
p760
aVbreaking
p761
aa(lp762
Vsympathetic
p763
ag25
aVfather gave a sympathetic look
p764
aVgave
p765
aa(lp766
Vgave
p767
aVfather gave a stern look
p768
aVaustere
p769
ag25
aVstern
p770
aa(lp771
Vwinding
p772
aVthread
p773
aVthe long winding steps , legs ached
p774
aVwind
p775
aVweave
p776
aa(lp777
Vwinding
p778
ag776
ag773
ag775
aVthe long winding steps , legs dangled
p779
aa(lp780
Varms
p781
aa(lp782
Vbassinet
p783
aa(lp784
Vchest
p785
aa(lp786
a(lp787
g221
aa(lp788
g221
aa(lp789
Vseveral
p790
aVfuture
p791
aVretire
p792
aVretired
p793
aVhad retired and presented several options for future treatment
p794
aa(lp795
Vshow
p796
aVseveral
p797
aVfuture
p798
aVhad cancer and presented several options for future treatment
p799
aVpresented
p800
aa(lp801
Vinjured
p802
aVinjure
p803
aVtoying with the injured bird
p804
aVwound
p805
aVdally
p806
aVtoying
p807
aa(lp808
Vinjured
p809
ag803
aVtoying with the injured bird
p810
ag805
ag806
aVtoying
p811
aa(lp812
Vthough was particularly eager to see
p813
aVeager
p814
aVsee
p815
aa(lp816
Veager
p817
aVsee
p818
aVwas particularly eager to see
p819
aa(lp820
Veager
p821
aVsee
p822
aVwas not particularly eager to see
p823
aa(lp824
Vwasn't hungry
p825
aVhungry
p826
aa(lp827
Vwas hungry
p828
aVhungry
p829
aa(lp830
Vlooking
p831
aVlight
p832
aVcame out looking more like light bulbs
p833
ag509
aVillume
p834
aa(lp835
Vlooking
p836
aVcall
p837
ag509
aVcame out looking more like telephone poles
p838
aVtelephone
p839
aa(lp840
Va favor but was refused
p841
aVdecline
p842
aVrefuse
p843
aVrefused
p844
aa(lp845
g842
ag843
aVa favor but refused
p846
aVrefused
p847
aa(lp848
Vpopular
p849
aVwas less popular
p850
aa(lp851
Vpopular
p852
aVwas more popular
p853
aa(lp854
Vopen up
p855
aVopen
p856
aVsaw
p857
aVsaw that was open
p858
aa(lp859
Vopen up
p860
aVwas open
p861
aVopen
p862
aa(lp863
g434
ag435
aVbroke
p864
aa(lp865
g434
ag435
aVbroke
p866
aa(lp867
Vcouldn't stand her boyfriend
p868
aVstand
p869
aVstand up
p870
aa(lp871
g520
aVslept
p872
aVsleep
p873
aVslept with her boyfriend
p874
ag521
aa(lp875
g520
aVslept
p876
ag873
aVslept with her boyfriend
p877
ag521
aa(lp878
Vcouldn't stand her boyfriend
p879
aVstand
p880
aVstand up
p881
aa(lp882
Vsteal
p883
aVstolen
p884
aVhad stolen the watch
p885
aa(lp886
g883
aVstolen
p887
aVhad stolen the watch
p888
aa.